; Function Attrs: nounwind uwtable
define ptr @zend_ini_string_ex(ptr noundef %0, i64 noundef %1, i32 noundef %2, ptr noundef writeonly %3) local_unnamed_addr #0 {
  %5 = load ptr, ptr getelementptr inbounds (%struct._zend_executor_globals, ptr @executor_globals, i64 0, i32 46), align 8
  %6 = tail call ptr @zend_hash_str_find(ptr noundef %5, ptr noundef %0, i64 noundef %1) #20
  %.not = icmp eq ptr %6, null
  br i1 %.not, label %22, label %7

7:                                                ; preds = %4
  %8 = load ptr, ptr %6, align 8, !nonnull !5, !noundef !5
  %.not27 = icmp eq ptr %3, null
  br i1 %.not27, label %10, label %9

9:                                                ; preds = %7
  store i8 1, ptr %3, align 1
  br label %10

10:                                               ; preds = %9, %7
  %.not28 = icmp eq i32 %2, 0
  br i1 %.not28, label %18, label %11

11:                                               ; preds = %10
  %12 = getelementptr inbounds i8, ptr %8, i64 70
  %13 = load i8, ptr %12, align 2
  %.not29 = icmp eq i8 %13, 0
  br i1 %.not29, label %18, label %14

14:                                               ; preds = %11
  %15 = getelementptr inbounds i8, ptr %8, i64 48
  %16 = load ptr, ptr %15, align 8
  %.not31 = icmp eq ptr %16, null
  %17 = getelementptr inbounds i8, ptr %16, i64 24
  %spec.select = select i1 %.not31, ptr null, ptr %17
  br label %24

18:                                               ; preds = %11, %10
  %19 = getelementptr inbounds i8, ptr %8, i64 40
  %20 = load ptr, ptr %19, align 8
  %.not30 = icmp eq ptr %20, null
  %21 = getelementptr inbounds i8, ptr %20, i64 24
  %spec.select32 = select i1 %.not30, ptr null, ptr %21
  br label %24

22:                                               ; preds = %4
  %.not26 = icmp eq ptr %3, null
  br i1 %.not26, label %24, label %23

23:                                               ; preds = %22
  store i8 0, ptr %3, align 1
  br label %24

24:                                               ; preds = %22, %23, %18, %14
  %.020 = phi ptr [ %spec.select, %14 ], [ %spec.select32, %18 ], [ null, %23 ], [ null, %22 ]
  ret ptr %.020
}